; Function Attrs: mustprogress uwtable
define dso_local void @_ZNK7msdfgen7Contour5boundERdS1_S1_S1_(ptr noundef nonnull readonly align 8 captures(none) dereferenceable(24) %this, ptr noundef nonnull align 8 dereferenceable(8) %l, ptr noundef nonnull align 8 dereferenceable(8) %b, ptr noundef nonnull align 8 dereferenceable(8) %r, ptr noundef nonnull align 8 dereferenceable(8) %t) local_unnamed_addr #0 align 2 {
entry:
  %0 = load ptr, ptr %this, align 8
  %_M_finish.i = getelementptr inbounds nuw i8, ptr %this, i64 8
  %1 = load ptr, ptr %_M_finish.i, align 8
  %cmp.i.not3 = icmp eq ptr %0, %1
  br i1 %cmp.i.not3, label %for.end, label %for.body

for.body:                                         ; preds = %entry, %for.body
  %edge.sroa.0.04 = phi ptr [ %incdec.ptr.i, %for.body ], [ %0, %entry ]
  %call7 = tail call noundef ptr @_ZNK7msdfgen10EdgeHolderptEv(ptr noundef nonnull align 8 dereferenceable(8) %edge.sroa.0.04)
  %vtable = load ptr, ptr %call7, align 8
  %vfn = getelementptr inbounds nuw i8, ptr %vtable, i64 88
  %2 = load ptr, ptr %vfn, align 8
  tail call void %2(ptr noundef nonnull align 8 dereferenceable(12) %call7, ptr noundef nonnull align 8 dereferenceable(8) %l, ptr noundef nonnull align 8 dereferenceable(8) %b, ptr noundef nonnull align 8 dereferenceable(8) %r, ptr noundef nonnull align 8 dereferenceable(8) %t)
  %incdec.ptr.i = getelementptr inbounds nuw i8, ptr %edge.sroa.0.04, i64 8
  %3 = load ptr, ptr %_M_finish.i, align 8
  %cmp.i.not = icmp eq ptr %incdec.ptr.i, %3
  br i1 %cmp.i.not, label %for.end, label %for.body, !llvm.loop !7

for.end:                                          ; preds = %for.body, %entry
  ret void
}